target datalayout = "e-m:e-p270:32:32-p271:32:32-p272:64:64-i64:64-i128:128-f80:128-n8:16:32:64-S128"
target triple = "x86_64-pc-linux-gnu"

%struct.VPXRangeCoder = type { i32, i32, ptr, ptr, i32, i32 }

@ff_vpx_norm_shift = external constant [256 x i8], align 16

; Function Attrs: alwaysinline nounwind willreturn memory(none) uwtable
define internal zeroext i16 @av_bswap16(i16 noundef zeroext %0) #9 {
  %2 = alloca i16, align 2
  store i16 %0, ptr %2, align 2, !tbaa !166
  %3 = load i16, ptr %2, align 2, !tbaa !166
  %4 = zext i16 %3 to i32
  %5 = ashr i32 %4, 8
  %6 = load i16, ptr %2, align 2, !tbaa !166
  %7 = zext i16 %6 to i32
  %8 = shl i32 %7, 8
  %9 = or i32 %5, %8
  %10 = trunc i32 %9 to i16
  store i16 %10, ptr %2, align 2, !tbaa !166
  %11 = load i16, ptr %2, align 2, !tbaa !166
  ret i16 %11
}

; Function Attrs: alwaysinline nounwind uwtable
define internal i32 @bytestream_get_be16(ptr noundef %0) #2 {
  %2 = alloca ptr, align 8
  store ptr %0, ptr %2, align 8, !tbaa !182
  %3 = load ptr, ptr %2, align 8, !tbaa !182
  %4 = load ptr, ptr %3, align 8, !tbaa !131
  %5 = getelementptr inbounds i8, ptr %4, i64 2
  store ptr %5, ptr %3, align 8, !tbaa !131
  %6 = load ptr, ptr %2, align 8, !tbaa !182
  %7 = load ptr, ptr %6, align 8, !tbaa !131
  %8 = getelementptr inbounds i8, ptr %7, i64 -2
  %9 = load i16, ptr %8, align 1, !tbaa !116
  %10 = call zeroext i16 @av_bswap16(i16 noundef zeroext %9) #14
  %11 = zext i16 %10 to i32
  ret i32 %11
}

; Function Attrs: alwaysinline nounwind uwtable
define internal i32 @vpx_rac_renorm(ptr noundef %0) #2 {
  %2 = alloca ptr, align 8
  %3 = alloca i32, align 4
  %4 = alloca i32, align 4
  %5 = alloca i32, align 4
  store ptr %0, ptr %2, align 8, !tbaa !132
  call void @llvm.lifetime.start.p0(i64 4, ptr %3) #12
  %6 = load ptr, ptr %2, align 8, !tbaa !132
  %7 = getelementptr inbounds nuw %struct.VPXRangeCoder, ptr %6, i32 0, i32 0
  %8 = load i32, ptr %7, align 8, !tbaa !180
  %9 = sext i32 %8 to i64
  %10 = getelementptr inbounds [256 x i8], ptr @ff_vpx_norm_shift, i64 0, i64 %9
  %11 = load i8, ptr %10, align 1, !tbaa !116
  %12 = zext i8 %11 to i32
  store i32 %12, ptr %3, align 4, !tbaa !9
  call void @llvm.lifetime.start.p0(i64 4, ptr %4) #12
  %13 = load ptr, ptr %2, align 8, !tbaa !132
  %14 = getelementptr inbounds nuw %struct.VPXRangeCoder, ptr %13, i32 0, i32 1
  %15 = load i32, ptr %14, align 4, !tbaa !169
  store i32 %15, ptr %4, align 4, !tbaa !9
  call void @llvm.lifetime.start.p0(i64 4, ptr %5) #12
  %16 = load ptr, ptr %2, align 8, !tbaa !132
  %17 = getelementptr inbounds nuw %struct.VPXRangeCoder, ptr %16, i32 0, i32 4
  %18 = load i32, ptr %17, align 8, !tbaa !181
  store i32 %18, ptr %5, align 4, !tbaa !9
  %19 = load i32, ptr %3, align 4, !tbaa !9
  %20 = load ptr, ptr %2, align 8, !tbaa !132
  %21 = getelementptr inbounds nuw %struct.VPXRangeCoder, ptr %20, i32 0, i32 0
  %22 = load i32, ptr %21, align 8, !tbaa !180
  %23 = shl i32 %22, %19
  store i32 %23, ptr %21, align 8, !tbaa !180
  %24 = load i32, ptr %3, align 4, !tbaa !9
  %25 = load i32, ptr %5, align 4, !tbaa !9
  %26 = shl i32 %25, %24
  store i32 %26, ptr %5, align 4, !tbaa !9
  %27 = load i32, ptr %3, align 4, !tbaa !9
  %28 = load i32, ptr %4, align 4, !tbaa !9
  %29 = add nsw i32 %28, %27
  store i32 %29, ptr %4, align 4, !tbaa !9
  %30 = load i32, ptr %4, align 4, !tbaa !9
  %31 = icmp sge i32 %30, 0
  br i1 %31, label %32, label %50

32:                                               ; preds = %1
  %33 = load ptr, ptr %2, align 8, !tbaa !132
  %34 = getelementptr inbounds nuw %struct.VPXRangeCoder, ptr %33, i32 0, i32 2
  %35 = load ptr, ptr %34, align 8, !tbaa !168
  %36 = load ptr, ptr %2, align 8, !tbaa !132
  %37 = getelementptr inbounds nuw %struct.VPXRangeCoder, ptr %36, i32 0, i32 3
  %38 = load ptr, ptr %37, align 8, !tbaa !167
  %39 = icmp ult ptr %35, %38
  br i1 %39, label %40, label %50

40:                                               ; preds = %32
  %41 = load ptr, ptr %2, align 8, !tbaa !132
  %42 = getelementptr inbounds nuw %struct.VPXRangeCoder, ptr %41, i32 0, i32 2
  %43 = call i32 @bytestream_get_be16(ptr noundef %42)
  %44 = load i32, ptr %4, align 4, !tbaa !9
  %45 = shl i32 %43, %44
  %46 = load i32, ptr %5, align 4, !tbaa !9
  %47 = or i32 %46, %45
  store i32 %47, ptr %5, align 4, !tbaa !9
  %48 = load i32, ptr %4, align 4, !tbaa !9
  %49 = sub nsw i32 %48, 16
  store i32 %49, ptr %4, align 4, !tbaa !9
  br label %50

50:                                               ; preds = %40, %32, %1
  %51 = load i32, ptr %4, align 4, !tbaa !9
  %52 = load ptr, ptr %2, align 8, !tbaa !132
  %53 = getelementptr inbounds nuw %struct.VPXRangeCoder, ptr %52, i32 0, i32 1
  store i32 %51, ptr %53, align 4, !tbaa !169
  %54 = load i32, ptr %5, align 4, !tbaa !9
  call void @llvm.lifetime.end.p0(i64 4, ptr %5) #12
  call void @llvm.lifetime.end.p0(i64 4, ptr %4) #12
  call void @llvm.lifetime.end.p0(i64 4, ptr %3) #12
  ret i32 %54
}

; Function Attrs: alwaysinline nounwind uwtable
define internal i32 @vpx_rac_get_prob(ptr noundef %0, i8 noundef zeroext %1) #2 {
  %3 = alloca ptr, align 8
  %4 = alloca i8, align 1
  %5 = alloca i32, align 4
  %6 = alloca i32, align 4
  %7 = alloca i32, align 4
  %8 = alloca i32, align 4
  store ptr %0, ptr %3, align 8, !tbaa !132
  store i8 %1, ptr %4, align 1, !tbaa !116
  call void @llvm.lifetime.start.p0(i64 4, ptr %5) #12
  %9 = load ptr, ptr %3, align 8, !tbaa !132
  %10 = call i32 @vpx_rac_renorm(ptr noundef %9)
  store i32 %10, ptr %5, align 4, !tbaa !9
  call void @llvm.lifetime.start.p0(i64 4, ptr %6) #12
  %11 = load ptr, ptr %3, align 8, !tbaa !132
  %12 = getelementptr inbounds nuw %struct.VPXRangeCoder, ptr %11, i32 0, i32 0
  %13 = load i32, ptr %12, align 8, !tbaa !180
  %14 = sub nsw i32 %13, 1
  %15 = load i8, ptr %4, align 1, !tbaa !116
  %16 = zext i8 %15 to i32
  %17 = mul nsw i32 %14, %16
  %18 = ashr i32 %17, 8
  %19 = add nsw i32 1, %18
  store i32 %19, ptr %6, align 4, !tbaa !9
  call void @llvm.lifetime.start.p0(i64 4, ptr %7) #12
  %20 = load i32, ptr %6, align 4, !tbaa !9
  %21 = shl i32 %20, 16
  store i32 %21, ptr %7, align 4, !tbaa !9
  call void @llvm.lifetime.start.p0(i64 4, ptr %8) #12
  %22 = load i32, ptr %5, align 4, !tbaa !9
  %23 = load i32, ptr %7, align 4, !tbaa !9
  %24 = icmp uge i32 %22, %23
  %25 = zext i1 %24 to i32
  store i32 %25, ptr %8, align 4, !tbaa !9
  %26 = load i32, ptr %8, align 4, !tbaa !9
  %27 = icmp ne i32 %26, 0
  br i1 %27, label %28, label %34

28:                                               ; preds = %2
  %29 = load ptr, ptr %3, align 8, !tbaa !132
  %30 = getelementptr inbounds nuw %struct.VPXRangeCoder, ptr %29, i32 0, i32 0
  %31 = load i32, ptr %30, align 8, !tbaa !180
  %32 = load i32, ptr %6, align 4, !tbaa !9
  %33 = sub i32 %31, %32
  br label %36

34:                                               ; preds = %2
  %35 = load i32, ptr %6, align 4, !tbaa !9
  br label %36

36:                                               ; preds = %34, %28
  %37 = phi i32 [ %33, %28 ], [ %35, %34 ]
  %38 = load ptr, ptr %3, align 8, !tbaa !132
  %39 = getelementptr inbounds nuw %struct.VPXRangeCoder, ptr %38, i32 0, i32 0
  store i32 %37, ptr %39, align 8, !tbaa !180
  %40 = load i32, ptr %8, align 4, !tbaa !9
  %41 = icmp ne i32 %40, 0
  br i1 %41, label %42, label %46

42:                                               ; preds = %36
  %43 = load i32, ptr %5, align 4, !tbaa !9
  %44 = load i32, ptr %7, align 4, !tbaa !9
  %45 = sub i32 %43, %44
  br label %48

46:                                               ; preds = %36
  %47 = load i32, ptr %5, align 4, !tbaa !9
  br label %48

48:                                               ; preds = %46, %42
  %49 = phi i32 [ %45, %42 ], [ %47, %46 ]
  %50 = load ptr, ptr %3, align 8, !tbaa !132
  %51 = getelementptr inbounds nuw %struct.VPXRangeCoder, ptr %50, i32 0, i32 4
  store i32 %49, ptr %51, align 8, !tbaa !181
  %52 = load i32, ptr %8, align 4, !tbaa !9
  call void @llvm.lifetime.end.p0(i64 4, ptr %8) #12
  call void @llvm.lifetime.end.p0(i64 4, ptr %7) #12
  call void @llvm.lifetime.end.p0(i64 4, ptr %6) #12
  call void @llvm.lifetime.end.p0(i64 4, ptr %5) #12
  ret i32 %52
}

; Function Attrs: nounwind uwtable
define internal i32 @vp89_rac_get_uint(ptr noundef %0, i32 noundef %1) #1 {
  %3 = alloca ptr, align 8
  %4 = alloca i32, align 4
  %5 = alloca i32, align 4
  store ptr %0, ptr %3, align 8, !tbaa !132
  store i32 %1, ptr %4, align 4, !tbaa !9
  call void @llvm.lifetime.start.p0(i64 4, ptr %5) #12
  store i32 0, ptr %5, align 4, !tbaa !9
  br label %6

6:                                                ; preds = %10, %2
  %7 = load i32, ptr %4, align 4, !tbaa !9
  %8 = add nsw i32 %7, -1
  store i32 %8, ptr %4, align 4, !tbaa !9
  %9 = icmp ne i32 %7, 0
  br i1 %9, label %10, label %16

10:                                               ; preds = %6
  %11 = load i32, ptr %5, align 4, !tbaa !9
  %12 = shl i32 %11, 1
  %13 = load ptr, ptr %3, align 8, !tbaa !132
  %14 = call i32 @vp89_rac_get(ptr noundef %13)
  %15 = or i32 %12, %14
  store i32 %15, ptr %5, align 4, !tbaa !9
  br label %6, !llvm.loop !163

16:                                               ; preds = %6
  %17 = load i32, ptr %5, align 4, !tbaa !9
  call void @llvm.lifetime.end.p0(i64 4, ptr %5) #12
  ret i32 %17
}

; Function Attrs: alwaysinline nounwind uwtable
define internal i32 @vp89_rac_get(ptr noundef %0) #2 {
  %2 = alloca ptr, align 8
  store ptr %0, ptr %2, align 8, !tbaa !132
  %3 = load ptr, ptr %2, align 8, !tbaa !132
  %4 = call i32 @vpx_rac_get_prob(ptr noundef %3, i8 noundef zeroext -128)
  ret i32 %4
}

; Function Attrs: nounwind uwtable
define internal i32 @vp8_rac_get_sint(ptr noundef %0, i32 noundef %1) #1 {
  %3 = alloca i32, align 4
  %4 = alloca ptr, align 8
  %5 = alloca i32, align 4
  %6 = alloca i32, align 4
  %7 = alloca i32, align 4
  store ptr %0, ptr %4, align 8, !tbaa !132
  store i32 %1, ptr %5, align 4, !tbaa !9
  call void @llvm.lifetime.start.p0(i64 4, ptr %6) #12
  %8 = load ptr, ptr %4, align 8, !tbaa !132
  %9 = call i32 @vp89_rac_get(ptr noundef %8)
  %10 = icmp ne i32 %9, 0
  br i1 %10, label %12, label %11

11:                                               ; preds = %2
  store i32 0, ptr %3, align 4
  store i32 1, ptr %7, align 4
  br label %24

12:                                               ; preds = %2
  %13 = load ptr, ptr %4, align 8, !tbaa !132
  %14 = load i32, ptr %5, align 4, !tbaa !9
  %15 = call i32 @vp89_rac_get_uint(ptr noundef %13, i32 noundef %14)
  store i32 %15, ptr %6, align 4, !tbaa !9
  %16 = load ptr, ptr %4, align 8, !tbaa !132
  %17 = call i32 @vp89_rac_get(ptr noundef %16)
  %18 = icmp ne i32 %17, 0
  br i1 %18, label %19, label %22

19:                                               ; preds = %12
  %20 = load i32, ptr %6, align 4, !tbaa !9
  %21 = sub nsw i32 0, %20
  store i32 %21, ptr %6, align 4, !tbaa !9
  br label %22

22:                                               ; preds = %19, %12
  %23 = load i32, ptr %6, align 4, !tbaa !9
  store i32 %23, ptr %3, align 4
  store i32 1, ptr %7, align 4
  br label %24

24:                                               ; preds = %22, %11
  call void @llvm.lifetime.end.p0(i64 4, ptr %6) #12
  %25 = load i32, ptr %3, align 4
  ret i32 %25
}