; Function Attrs: nofree norecurse nosync nounwind memory(read, argmem: readwrite, inaccessiblemem: none) uwtable
define internal fastcc i32 @vp8_rac_get_sint(ptr noundef captures(none) %0, i32 noundef range(i32 4, 8) %1) unnamed_addr #8 {
  %3 = load i32, ptr %0, align 8, !tbaa !65
  %4 = sext i32 %3 to i64
  %5 = getelementptr inbounds [256 x i8], ptr @ff_vpx_norm_shift, i64 0, i64 %4
  %6 = load i8, ptr %5, align 1, !tbaa !56
  %7 = zext i8 %6 to i32
  %8 = getelementptr inbounds nuw i8, ptr %0, i64 4
  %9 = load i32, ptr %8, align 4, !tbaa !66
  %10 = getelementptr inbounds nuw i8, ptr %0, i64 24
  %11 = load i32, ptr %10, align 8, !tbaa !67
  %12 = shl i32 %3, %7
  store i32 %12, ptr %0, align 8, !tbaa !65
  %13 = shl i32 %11, %7
  %14 = add nsw i32 %9, %7
  %15 = icmp sgt i32 %14, -1
  br i1 %15, label %16, label %vpx_rac_renorm.exit10

16:                                               ; preds = %2
  %17 = getelementptr inbounds nuw i8, ptr %0, i64 8
  %18 = load ptr, ptr %17, align 8, !tbaa !68
  %19 = getelementptr inbounds nuw i8, ptr %0, i64 16
  %20 = load ptr, ptr %19, align 8, !tbaa !69
  %21 = icmp ult ptr %18, %20
  br i1 %21, label %22, label %vpx_rac_renorm.exit10

22:                                               ; preds = %16
  %23 = getelementptr inbounds nuw i8, ptr %18, i64 2
  store ptr %23, ptr %17, align 8, !tbaa !70
  %24 = load i16, ptr %18, align 1, !tbaa !56
  %25 = tail call i16 @llvm.bswap.i16(i16 %24)
  %26 = zext i16 %25 to i32
  %27 = shl i32 %26, %14
  %28 = or i32 %27, %13
  %29 = add nsw i32 %14, -16
  br label %vpx_rac_renorm.exit10

vpx_rac_renorm.exit10:                            ; preds = %2, %16, %22
  %.018.i8 = phi i32 [ %29, %22 ], [ %14, %16 ], [ %14, %2 ]
  %.0.i9 = phi i32 [ %28, %22 ], [ %13, %16 ], [ %13, %2 ]
  store i32 %.018.i8, ptr %8, align 4, !tbaa !66
  %30 = shl i32 %12, 7
  %31 = add i32 %30, -128
  %32 = ashr i32 %31, 8
  %33 = add nsw i32 %32, 1
  %34 = shl i32 %33, 16
  %.not11 = icmp ult i32 %.0.i9, %34
  %35 = sub i32 %12, %33
  %36 = select i1 %.not11, i32 0, i32 %34
  %37 = select i1 %.not11, i32 %33, i32 %35
  store i32 %37, ptr %0, align 8, !tbaa !65
  %38 = sub i32 %.0.i9, %36
  store i32 %38, ptr %10, align 8, !tbaa !67
  br i1 %.not11, label %109, label %39

39:                                               ; preds = %vpx_rac_renorm.exit10
  %40 = getelementptr inbounds nuw i8, ptr %0, i64 8
  %41 = getelementptr inbounds nuw i8, ptr %0, i64 16
  br label %42

42:                                               ; preds = %vpx_rac_renorm.exit.i, %39
  %43 = phi i32 [ %38, %39 ], [ %77, %vpx_rac_renorm.exit.i ]
  %.018.i8.i = phi i32 [ %.018.i8, %39 ], [ %.018.i.i, %vpx_rac_renorm.exit.i ]
  %44 = phi i32 [ %35, %39 ], [ %75, %vpx_rac_renorm.exit.i ]
  %.06.i = phi i32 [ 0, %39 ], [ %78, %vpx_rac_renorm.exit.i ]
  %.035.i = phi i32 [ %1, %39 ], [ %45, %vpx_rac_renorm.exit.i ]
  %45 = add nsw i32 %.035.i, -1
  %46 = shl i32 %.06.i, 1
  %47 = sext i32 %44 to i64
  %48 = getelementptr inbounds [256 x i8], ptr @ff_vpx_norm_shift, i64 0, i64 %47
  %49 = load i8, ptr %48, align 1, !tbaa !56
  %50 = zext i8 %49 to i32
  %51 = shl i32 %44, %50
  store i32 %51, ptr %0, align 8, !tbaa !65
  %52 = shl i32 %43, %50
  %53 = add nsw i32 %.018.i8.i, %50
  %54 = icmp sgt i32 %53, -1
  br i1 %54, label %55, label %vpx_rac_renorm.exit.i

55:                                               ; preds = %42
  %56 = load ptr, ptr %40, align 8, !tbaa !68
  %57 = load ptr, ptr %41, align 8, !tbaa !69
  %58 = icmp ult ptr %56, %57
  br i1 %58, label %59, label %vpx_rac_renorm.exit.i

59:                                               ; preds = %55
  %60 = getelementptr inbounds nuw i8, ptr %56, i64 2
  store ptr %60, ptr %40, align 8, !tbaa !70
  %61 = load i16, ptr %56, align 1, !tbaa !56
  %62 = tail call i16 @llvm.bswap.i16(i16 %61)
  %63 = zext i16 %62 to i32
  %64 = shl i32 %63, %53
  %65 = or i32 %64, %52
  %66 = add nsw i32 %53, -16
  br label %vpx_rac_renorm.exit.i

vpx_rac_renorm.exit.i:                            ; preds = %59, %55, %42
  %.018.i.i = phi i32 [ %66, %59 ], [ %53, %55 ], [ %53, %42 ]
  %.0.i.i = phi i32 [ %65, %59 ], [ %52, %55 ], [ %52, %42 ]
  store i32 %.018.i.i, ptr %8, align 4, !tbaa !66
  %67 = shl i32 %51, 7
  %68 = add i32 %67, -128
  %69 = ashr i32 %68, 8
  %70 = add nsw i32 %69, 1
  %71 = shl i32 %70, 16
  %72 = icmp uge i32 %.0.i.i, %71
  %73 = sub i32 %51, %70
  %74 = select i1 %72, i32 %71, i32 0
  %75 = select i1 %72, i32 %73, i32 %70
  %76 = zext i1 %72 to i32
  store i32 %75, ptr %0, align 8, !tbaa !65
  %77 = sub i32 %.0.i.i, %74
  store i32 %77, ptr %10, align 8, !tbaa !67
  %78 = or disjoint i32 %46, %76
  %.not.i = icmp eq i32 %45, 0
  br i1 %.not.i, label %vp89_rac_get_uint.exit, label %42, !llvm.loop !79

vp89_rac_get_uint.exit:                           ; preds = %vpx_rac_renorm.exit.i
  %79 = sext i32 %75 to i64
  %80 = getelementptr inbounds [256 x i8], ptr @ff_vpx_norm_shift, i64 0, i64 %79
  %81 = load i8, ptr %80, align 1, !tbaa !56
  %82 = zext i8 %81 to i32
  %83 = shl i32 %75, %82
  store i32 %83, ptr %0, align 8, !tbaa !65
  %84 = shl i32 %77, %82
  %85 = add nsw i32 %.018.i.i, %82
  %86 = icmp sgt i32 %85, -1
  br i1 %86, label %87, label %vpx_rac_renorm.exit

87:                                               ; preds = %vp89_rac_get_uint.exit
  %88 = load ptr, ptr %40, align 8, !tbaa !68
  %89 = load ptr, ptr %41, align 8, !tbaa !69
  %90 = icmp ult ptr %88, %89
  br i1 %90, label %91, label %vpx_rac_renorm.exit

91:                                               ; preds = %87
  %92 = getelementptr inbounds nuw i8, ptr %88, i64 2
  store ptr %92, ptr %40, align 8, !tbaa !70
  %93 = load i16, ptr %88, align 1, !tbaa !56
  %94 = tail call i16 @llvm.bswap.i16(i16 %93)
  %95 = zext i16 %94 to i32
  %96 = shl i32 %95, %85
  %97 = or i32 %96, %84
  %98 = add nsw i32 %85, -16
  br label %vpx_rac_renorm.exit

vpx_rac_renorm.exit:                              ; preds = %vp89_rac_get_uint.exit, %87, %91
  %.018.i = phi i32 [ %98, %91 ], [ %85, %87 ], [ %85, %vp89_rac_get_uint.exit ]
  %.0.i = phi i32 [ %97, %91 ], [ %84, %87 ], [ %84, %vp89_rac_get_uint.exit ]
  store i32 %.018.i, ptr %8, align 4, !tbaa !66
  %99 = shl i32 %83, 7
  %100 = add i32 %99, -128
  %101 = ashr i32 %100, 8
  %102 = add nsw i32 %101, 1
  %103 = shl i32 %102, 16
  %.not = icmp ult i32 %.0.i, %103
  %104 = sub i32 %83, %102
  %105 = select i1 %.not, i32 0, i32 %103
  %106 = select i1 %.not, i32 %102, i32 %104
  store i32 %106, ptr %0, align 8, !tbaa !65
  %107 = sub i32 %.0.i, %105
  store i32 %107, ptr %10, align 8, !tbaa !67
  %108 = sub nsw i32 0, %78
  %spec.select = select i1 %.not, i32 %78, i32 %108
  br label %109

109:                                              ; preds = %vpx_rac_renorm.exit10, %vpx_rac_renorm.exit
  %.06 = phi i32 [ %spec.select, %vpx_rac_renorm.exit ], [ 0, %vpx_rac_renorm.exit10 ]
  ret i32 %.06
}